; Function Attrs: mustprogress uwtable
define void @_ZN7rocksdb14ThreadPoolImpl16LowerCPUPriorityENS_11CpuPriorityE(ptr noundef nonnull readonly align 8 captures(none) dereferenceable(16) %0, i32 noundef %1) local_unnamed_addr #3 align 2 personality ptr @__gxx_personality_v0 {
  %3 = getelementptr inbounds nuw i8, ptr %0, i64 8
  %4 = load ptr, ptr %3, align 8, !tbaa !155
  %5 = getelementptr inbounds nuw i8, ptr %4, i64 128
  %6 = tail call noundef i32 @pthread_mutex_lock(ptr noundef nonnull align 8 dereferenceable(40) %5) #26
  %.not.i.i.i = icmp eq i32 %6, 0
  br i1 %.not.i.i.i, label %_ZN7rocksdb14ThreadPoolImpl4Impl16LowerCPUPriorityENS_11CpuPriorityE.exit, label %7

7:                                                ; preds = %2
  tail call void @_ZSt20__throw_system_errori(i32 noundef %6) #29
  unreachable

_ZN7rocksdb14ThreadPoolImpl4Impl16LowerCPUPriorityENS_11CpuPriorityE.exit: ; preds = %2
  %8 = getelementptr inbounds nuw i8, ptr %4, i64 4
  store i32 %1, ptr %8, align 4, !tbaa !72
  %9 = tail call noundef i32 @pthread_mutex_unlock(ptr noundef nonnull align 8 dereferenceable(40) %5) #26
  ret void
}